; Function Attrs: mustprogress uwtable
define void @_ZN5faiss10fourcc_invB5cxx11Ej(ptr dead_on_unwind noalias writable sret(%"class.std::__cxx11::basic_string") align 8 %0, i32 noundef %1) local_unnamed_addr #2 personality ptr @__gxx_personality_v0 {
  %3 = alloca [5 x i8], align 1
  %4 = alloca %"class.std::allocator", align 1
  store i32 %1, ptr %3, align 4
  %5 = getelementptr inbounds i8, ptr %3, i64 4
  store i8 0, ptr %5, align 1
  call void @_ZNSaIcEC1Ev(ptr noundef nonnull align 1 dereferenceable(1) %4) #21
  %6 = invoke noundef ptr @_ZNSt7__cxx1112basic_stringIcSt11char_traitsIcESaIcEE13_M_local_dataEv(ptr noundef nonnull align 8 dereferenceable(32) %0)
          to label %.noexc unwind label %11

.noexc:                                           ; preds = %2
  invoke void @_ZNSt7__cxx1112basic_stringIcSt11char_traitsIcESaIcEE12_Alloc_hiderC1EPcRKS3_(ptr noundef nonnull align 8 dereferenceable(8) %0, ptr noundef %6, ptr noundef nonnull align 1 dereferenceable(1) %4)
          to label %.noexc2 unwind label %11

.noexc2:                                          ; preds = %.noexc
  %7 = call noundef i64 @strlen(ptr noundef nonnull dereferenceable(1) %3) #21
  %8 = getelementptr inbounds i8, ptr %3, i64 %7
  invoke void @_ZNSt7__cxx1112basic_stringIcSt11char_traitsIcESaIcEE12_M_constructIPKcEEvT_S8_St20forward_iterator_tag(ptr noundef nonnull align 8 dereferenceable(32) %0, ptr noundef nonnull %3, ptr noundef nonnull %8)
          to label %_ZNSt7__cxx1112basic_stringIcSt11char_traitsIcESaIcEEC2IS3_EEPKcRKS3_.exit unwind label %9

9:                                                ; preds = %.noexc2
  %10 = landingpad { ptr, i32 }
          cleanup
  call void @_ZNSaIcED2Ev(ptr noundef nonnull align 1 dereferenceable(1) %0) #21
  br label %.body

_ZNSt7__cxx1112basic_stringIcSt11char_traitsIcESaIcEEC2IS3_EEPKcRKS3_.exit: ; preds = %.noexc2
  call void @_ZNSaIcED1Ev(ptr noundef nonnull align 1 dereferenceable(1) %4) #21
  ret void

11:                                               ; preds = %.noexc, %2
  %12 = landingpad { ptr, i32 }
          cleanup
  br label %.body

.body:                                            ; preds = %9, %11
  %eh.lpad-body = phi { ptr, i32 } [ %12, %11 ], [ %10, %9 ]
  call void @_ZNSaIcED1Ev(ptr noundef nonnull align 1 dereferenceable(1) %4) #21
  resume { ptr, i32 } %eh.lpad-body
}